; Function Attrs: mustprogress nounwind uwtable
define void @_ZN5arrow2io16HadoopFileSystemD2Ev(ptr nocapture noundef nonnull align 8 dereferenceable(16) %this) unnamed_addr #4 align 2 personality ptr @__gxx_personality_v0 {
entry:
  store ptr getelementptr inbounds ({ [9 x ptr] }, ptr @_ZTVN5arrow2io16HadoopFileSystemE, i64 0, i32 0, i64 2), ptr %this, align 8
  %impl_ = getelementptr inbounds i8, ptr %this, i64 8
  %0 = load ptr, ptr %impl_, align 8
  %cmp.not.i = icmp eq ptr %0, null
  br i1 %cmp.not.i, label %_ZNSt10unique_ptrIN5arrow2io16HadoopFileSystem20HadoopFileSystemImplESt14default_deleteIS3_EED2Ev.exit, label %_ZNKSt14default_deleteIN5arrow2io16HadoopFileSystem20HadoopFileSystemImplEEclEPS3_.exit.i

_ZNKSt14default_deleteIN5arrow2io16HadoopFileSystem20HadoopFileSystemImplEEclEPS3_.exit.i: ; preds = %entry
  %kerb_ticket_.i.i.i = getelementptr inbounds i8, ptr %0, i64 80
  tail call void @_ZNSt7__cxx1112basic_stringIcSt11char_traitsIcESaIcEED1Ev(ptr noundef nonnull align 8 dereferenceable(32) %kerb_ticket_.i.i.i) #21
  %user_.i.i.i = getelementptr inbounds i8, ptr %0, i64 40
  tail call void @_ZNSt7__cxx1112basic_stringIcSt11char_traitsIcESaIcEED1Ev(ptr noundef nonnull align 8 dereferenceable(32) %user_.i.i.i) #21
  %namenode_host_.i.i.i = getelementptr inbounds i8, ptr %0, i64 8
  tail call void @_ZNSt7__cxx1112basic_stringIcSt11char_traitsIcESaIcEED1Ev(ptr noundef nonnull align 8 dereferenceable(32) %namenode_host_.i.i.i) #21
  tail call void @_ZdlPv(ptr noundef nonnull %0) #22
  br label %_ZNSt10unique_ptrIN5arrow2io16HadoopFileSystem20HadoopFileSystemImplESt14default_deleteIS3_EED2Ev.exit

_ZNSt10unique_ptrIN5arrow2io16HadoopFileSystem20HadoopFileSystemImplESt14default_deleteIS3_EED2Ev.exit: ; preds = %entry, %_ZNKSt14default_deleteIN5arrow2io16HadoopFileSystem20HadoopFileSystemImplEEclEPS3_.exit.i
  store ptr null, ptr %impl_, align 8
  ret void
}